; Function Attrs: mustprogress uwtable
define void @_ZN4lean11io_eprintlnEP11lean_object(ptr noundef %0) local_unnamed_addr #0 {
  %2 = tail call ptr @lean_io_eprintln(ptr noundef %0, ptr noundef nonnull inttoptr (i64 1 to ptr))
  %3 = ptrtoint ptr %2 to i64
  %4 = and i64 %3, 1
  %.not = icmp eq i64 %4, 0
  br i1 %.not, label %5, label %_ZL8lean_decP11lean_object.exit

5:                                                ; preds = %1
  %6 = load i32, ptr %2, align 4, !tbaa !23
  %7 = icmp sgt i32 %6, 1
  br i1 %7, label %8, label %10, !prof !25

8:                                                ; preds = %5
  %9 = add nsw i32 %6, -1
  store i32 %9, ptr %2, align 4, !tbaa !23
  br label %_ZL8lean_decP11lean_object.exit

10:                                               ; preds = %5
  %.not.i = icmp eq i32 %6, 0
  br i1 %.not.i, label %_ZL8lean_decP11lean_object.exit, label %11

11:                                               ; preds = %10
  tail call void @lean_dec_ref_cold(ptr noundef nonnull %2)
  br label %_ZL8lean_decP11lean_object.exit

_ZL8lean_decP11lean_object.exit:                  ; preds = %11, %10, %8, %1
  ret void
}